; Function Attrs: mustprogress uwtable
define internal void @_ZN12_GLOBAL__N_122TransformActionReplaceclERKNSt7__cxx1112basic_stringIcSt11char_traitsIcESaIcEEE(ptr dead_on_unwind noalias writable sret(%"class.std::__cxx11::basic_string") align 8 %0, ptr nocapture noundef nonnull readonly align 8 dereferenceable(24) %1, ptr noundef nonnull align 8 dereferenceable(32) %2) unnamed_addr #3 align 2 personality ptr @__gxx_personality_v0 {
  %4 = alloca %"class.std::__cxx11::basic_string", align 8
  %5 = getelementptr inbounds i8, ptr %1, i64 8
  %6 = load ptr, ptr %5, align 8
  %7 = load ptr, ptr %6, align 8
  %8 = getelementptr inbounds i8, ptr %7, i64 32
  %9 = load ptr, ptr %8, align 8
  %10 = tail call noundef zeroext i1 %9(ptr noundef nonnull align 8 dereferenceable(40) %6, ptr noundef nonnull align 8 dereferenceable(32) %2)
  br i1 %10, label %11, label %29

11:                                               ; preds = %3
  tail call void @_ZNSt7__cxx1112basic_stringIcSt11char_traitsIcESaIcEEC1Ev(ptr noundef nonnull align 8 dereferenceable(32) %0) #27
  %12 = getelementptr inbounds i8, ptr %1, i64 16
  %13 = load ptr, ptr %12, align 8
  %14 = invoke noundef zeroext i1 @_ZN21cmStringReplaceHelper7ReplaceERKNSt7__cxx1112basic_stringIcSt11char_traitsIcESaIcEEERS5_(ptr noundef nonnull align 8 dereferenceable(696) %13, ptr noundef nonnull align 8 dereferenceable(32) %2, ptr noundef nonnull align 8 dereferenceable(32) %0)
          to label %15 unwind label %22

15:                                               ; preds = %11
  br i1 %14, label %30, label %16

16:                                               ; preds = %15
  %17 = tail call ptr @__cxa_allocate_exception(i64 16) #27
  %18 = load ptr, ptr %12, align 8
  invoke void @_Z8cmStrCatIRA40_KcRKNSt7__cxx1112basic_stringIcSt11char_traitsIcESaIcEEEJRA2_S0_EES8_OT_OT0_DpOT1_(ptr dead_on_unwind nonnull writable sret(%"class.std::__cxx11::basic_string") align 8 %4, ptr noundef nonnull align 1 dereferenceable(40) @.str.27, ptr noundef nonnull align 8 dereferenceable(32) %18, ptr noundef nonnull align 1 dereferenceable(2) @.str.28)
          to label %19 unwind label %.thread

19:                                               ; preds = %16
  invoke void @_ZNSt13runtime_errorC2ERKNSt7__cxx1112basic_stringIcSt11char_traitsIcESaIcEEE(ptr noundef nonnull align 8 dereferenceable(16) %17, ptr noundef nonnull align 8 dereferenceable(32) %4)
          to label %21 unwind label %.thread16

.thread16:                                        ; preds = %19
  %20 = landingpad { ptr, i32 }
          cleanup
  call void @_ZNSt7__cxx1112basic_stringIcSt11char_traitsIcESaIcEED1Ev(ptr noundef nonnull align 8 dereferenceable(32) %4) #27
  br label %27

21:                                               ; preds = %19
  store ptr getelementptr inbounds ({ [5 x ptr] }, ptr @_ZTVN6cmList15transform_errorE, i64 0, i32 0, i64 2), ptr %17, align 8
  invoke void @__cxa_throw(ptr nonnull %17, ptr nonnull @_ZTIN6cmList15transform_errorE, ptr nonnull @_ZN6cmList15transform_errorD2Ev) #28
          to label %31 unwind label %25

22:                                               ; preds = %11
  %23 = landingpad { ptr, i32 }
          cleanup
  br label %28

.thread:                                          ; preds = %16
  %24 = landingpad { ptr, i32 }
          cleanup
  br label %27

25:                                               ; preds = %21
  %26 = landingpad { ptr, i32 }
          cleanup
  call void @_ZNSt7__cxx1112basic_stringIcSt11char_traitsIcESaIcEED1Ev(ptr noundef nonnull align 8 dereferenceable(32) %4) #27
  br label %28

27:                                               ; preds = %.thread16, %.thread
  %.pn15 = phi { ptr, i32 } [ %24, %.thread ], [ %20, %.thread16 ]
  call void @__cxa_free_exception(ptr %17) #27
  br label %28

28:                                               ; preds = %25, %27, %22
  %.pn.pn = phi { ptr, i32 } [ %.pn15, %27 ], [ %26, %25 ], [ %23, %22 ]
  call void @_ZNSt7__cxx1112basic_stringIcSt11char_traitsIcESaIcEED1Ev(ptr noundef nonnull align 8 dereferenceable(32) %0) #27
  resume { ptr, i32 } %.pn.pn

29:                                               ; preds = %3
  tail call void @_ZNSt7__cxx1112basic_stringIcSt11char_traitsIcESaIcEEC1ERKS4_(ptr noundef nonnull align 8 dereferenceable(32) %0, ptr noundef nonnull align 8 dereferenceable(32) %2)
  br label %30

30:                                               ; preds = %15, %29
  ret void

31:                                               ; preds = %21
  unreachable
}